target datalayout = "e-m:e-p270:32:32-p271:32:32-p272:64:64-i64:64-i128:128-f80:128-n8:16:32:64-S128"
target triple = "x86_64-pc-linux-gnu"

%struct.lbtrm_tag_entry_t = type { ptr, ptr, i32, ptr, i32, i32, i32, i32, i32, i32, i32, ptr, i32, ptr, i32 }

; Function Attrs: null_pointer_is_valid sspstrong uwtable
define internal void @lbtrm_tag_free_cb(ptr noundef %0) #0 {
  %2 = alloca ptr, align 8
  %3 = alloca ptr, align 8
  store ptr %0, ptr %2, align 8
  call void @llvm.lifetime.start.p0(i64 8, ptr %3) #9
  %4 = load ptr, ptr %2, align 8
  store ptr %4, ptr %3, align 8
  %5 = load ptr, ptr %3, align 8
  %6 = getelementptr inbounds nuw %struct.lbtrm_tag_entry_t, ptr %5, i32 0, i32 0
  %7 = load ptr, ptr %6, align 8
  %8 = icmp ne ptr %7, null
  br i1 %8, label %9, label %15

9:                                                ; preds = %1
  %10 = load ptr, ptr %3, align 8
  %11 = getelementptr inbounds nuw %struct.lbtrm_tag_entry_t, ptr %10, i32 0, i32 0
  %12 = load ptr, ptr %11, align 8
  call void @g_free(ptr noundef %12)
  %13 = load ptr, ptr %3, align 8
  %14 = getelementptr inbounds nuw %struct.lbtrm_tag_entry_t, ptr %13, i32 0, i32 0
  store ptr null, ptr %14, align 8
  br label %15

15:                                               ; preds = %9, %1
  %16 = load ptr, ptr %3, align 8
  %17 = getelementptr inbounds nuw %struct.lbtrm_tag_entry_t, ptr %16, i32 0, i32 1
  %18 = load ptr, ptr %17, align 8
  %19 = icmp ne ptr %18, null
  br i1 %19, label %20, label %26

20:                                               ; preds = %15
  %21 = load ptr, ptr %3, align 8
  %22 = getelementptr inbounds nuw %struct.lbtrm_tag_entry_t, ptr %21, i32 0, i32 1
  %23 = load ptr, ptr %22, align 8
  call void @g_free(ptr noundef %23)
  %24 = load ptr, ptr %3, align 8
  %25 = getelementptr inbounds nuw %struct.lbtrm_tag_entry_t, ptr %24, i32 0, i32 1
  store ptr null, ptr %25, align 8
  br label %26

26:                                               ; preds = %20, %15
  %27 = load ptr, ptr %3, align 8
  %28 = getelementptr inbounds nuw %struct.lbtrm_tag_entry_t, ptr %27, i32 0, i32 3
  %29 = load ptr, ptr %28, align 8
  %30 = icmp ne ptr %29, null
  br i1 %30, label %31, label %37

31:                                               ; preds = %26
  %32 = load ptr, ptr %3, align 8
  %33 = getelementptr inbounds nuw %struct.lbtrm_tag_entry_t, ptr %32, i32 0, i32 3
  %34 = load ptr, ptr %33, align 8
  call void @g_free(ptr noundef %34)
  %35 = load ptr, ptr %3, align 8
  %36 = getelementptr inbounds nuw %struct.lbtrm_tag_entry_t, ptr %35, i32 0, i32 3
  store ptr null, ptr %36, align 8
  br label %37

37:                                               ; preds = %31, %26
  %38 = load ptr, ptr %3, align 8
  %39 = getelementptr inbounds nuw %struct.lbtrm_tag_entry_t, ptr %38, i32 0, i32 11
  %40 = load ptr, ptr %39, align 8
  %41 = icmp ne ptr %40, null
  br i1 %41, label %42, label %48

42:                                               ; preds = %37
  %43 = load ptr, ptr %3, align 8
  %44 = getelementptr inbounds nuw %struct.lbtrm_tag_entry_t, ptr %43, i32 0, i32 11
  %45 = load ptr, ptr %44, align 8
  call void @g_free(ptr noundef %45)
  %46 = load ptr, ptr %3, align 8
  %47 = getelementptr inbounds nuw %struct.lbtrm_tag_entry_t, ptr %46, i32 0, i32 11
  store ptr null, ptr %47, align 8
  br label %48

48:                                               ; preds = %42, %37
  %49 = load ptr, ptr %3, align 8
  %50 = getelementptr inbounds nuw %struct.lbtrm_tag_entry_t, ptr %49, i32 0, i32 13
  %51 = load ptr, ptr %50, align 8
  %52 = icmp ne ptr %51, null
  br i1 %52, label %53, label %59

53:                                               ; preds = %48
  %54 = load ptr, ptr %3, align 8
  %55 = getelementptr inbounds nuw %struct.lbtrm_tag_entry_t, ptr %54, i32 0, i32 13
  %56 = load ptr, ptr %55, align 8
  call void @g_free(ptr noundef %56)
  %57 = load ptr, ptr %3, align 8
  %58 = getelementptr inbounds nuw %struct.lbtrm_tag_entry_t, ptr %57, i32 0, i32 13
  store ptr null, ptr %58, align 8
  br label %59

59:                                               ; preds = %53, %48
  call void @llvm.lifetime.end.p0(i64 8, ptr %3) #9
  ret void
}