; Function Attrs: null_pointer_is_valid sspstrong uwtable
define internal void @lbtrm_tag_free_cb(ptr noundef captures(none) %0) #0 {
  %2 = load ptr, ptr %0, align 8
  %.not = icmp eq ptr %2, null
  br i1 %.not, label %4, label %3

3:                                                ; preds = %1
  tail call void @g_free(ptr noundef nonnull %2)
  store ptr null, ptr %0, align 8
  br label %4

4:                                                ; preds = %3, %1
  %5 = getelementptr inbounds nuw i8, ptr %0, i64 8
  %6 = load ptr, ptr %5, align 8
  %.not20 = icmp eq ptr %6, null
  br i1 %.not20, label %8, label %7

7:                                                ; preds = %4
  tail call void @g_free(ptr noundef nonnull %6)
  store ptr null, ptr %5, align 8
  br label %8

8:                                                ; preds = %7, %4
  %9 = getelementptr inbounds nuw i8, ptr %0, i64 24
  %10 = load ptr, ptr %9, align 8
  %.not21 = icmp eq ptr %10, null
  br i1 %.not21, label %12, label %11

11:                                               ; preds = %8
  tail call void @g_free(ptr noundef nonnull %10)
  store ptr null, ptr %9, align 8
  br label %12

12:                                               ; preds = %11, %8
  %13 = getelementptr inbounds nuw i8, ptr %0, i64 64
  %14 = load ptr, ptr %13, align 8
  %.not22 = icmp eq ptr %14, null
  br i1 %.not22, label %16, label %15

15:                                               ; preds = %12
  tail call void @g_free(ptr noundef nonnull %14)
  store ptr null, ptr %13, align 8
  br label %16

16:                                               ; preds = %15, %12
  %17 = getelementptr inbounds nuw i8, ptr %0, i64 80
  %18 = load ptr, ptr %17, align 8
  %.not23 = icmp eq ptr %18, null
  br i1 %.not23, label %20, label %19

19:                                               ; preds = %16
  tail call void @g_free(ptr noundef nonnull %18)
  store ptr null, ptr %17, align 8
  br label %20

20:                                               ; preds = %19, %16
  ret void
}